; ModuleID = '39/1162.c'
source_filename = "39/1162.c"
target datalayout = "e-m:e-p270:32:32-p271:32:32-p272:64:64-i64:64-f80:128-n8:16:32:64-S128"
target triple = "x86_64-pc-linux-gnu"

%struct.student = type { [25 x i8], i32, i32, i8, i8, i32, i32 }

@.str = private unnamed_addr constant [3 x i8] c"%d\00", align 1
@.str.1 = private unnamed_addr constant [18 x i8] c"%s %d %d %c %c %d\00", align 1
@.str.2 = private unnamed_addr constant [4 x i8] c"%s\0A\00", align 1
@.str.3 = private unnamed_addr constant [4 x i8] c"%d\0A\00", align 1

; Function Attrs: noinline nounwind uwtable
define dso_local i32 @main(i32 %0, i8** %1) #0 {
  %3 = alloca i32, align 4
  %4 = alloca i32, align 4
  %5 = alloca i8**, align 8
  %6 = alloca [101 x %struct.student], align 16
  %7 = alloca i32, align 4
  %8 = alloca i32, align 4
  %9 = alloca i32, align 4
  %10 = alloca i32, align 4
  %11 = alloca i32, align 4
  %12 = alloca i32, align 4
  store i32 0, i32* %3, align 4
  store i32 %0, i32* %4, align 4
  store i8** %1, i8*** %5, align 8
  %13 = call i32 (i8*, ...) @__isoc99_scanf(i8* getelementptr inbounds ([3 x i8], [3 x i8]* @.str, i64 0, i64 0), i32* %7)
  store i32 0, i32* %11, align 4
  br label %14

14:                                               ; preds = %53, %2
  %15 = load i32, i32* %11, align 4
  %16 = load i32, i32* %7, align 4
  %17 = icmp slt i32 %15, %16
  br i1 %17, label %18, label %56

18:                                               ; preds = %14
  %19 = load i32, i32* %11, align 4
  %20 = sext i32 %19 to i64
  %21 = getelementptr inbounds [101 x %struct.student], [101 x %struct.student]* %6, i64 0, i64 %20
  %22 = getelementptr inbounds %struct.student, %struct.student* %21, i32 0, i32 0
  %23 = getelementptr inbounds [25 x i8], [25 x i8]* %22, i64 0, i64 0
  %24 = load i32, i32* %11, align 4
  %25 = sext i32 %24 to i64
  %26 = getelementptr inbounds [101 x %struct.student], [101 x %struct.student]* %6, i64 0, i64 %25
  %27 = getelementptr inbounds %struct.student, %struct.student* %26, i32 0, i32 1
  %28 = load i32, i32* %11, align 4
  %29 = sext i32 %28 to i64
  %30 = getelementptr inbounds [101 x %struct.student], [101 x %struct.student]* %6, i64 0, i64 %29
  %31 = getelementptr inbounds %struct.student, %struct.student* %30, i32 0, i32 2
  %32 = load i32, i32* %11, align 4
  %33 = sext i32 %32 to i64
  %34 = getelementptr inbounds [101 x %struct.student], [101 x %struct.student]* %6, i64 0, i64 %33
  %35 = getelementptr inbounds %struct.student, %struct.student* %34, i32 0, i32 3
  %36 = load i32, i32* %11, align 4
  %37 = sext i32 %36 to i64
  %38 = getelementptr inbounds [101 x %struct.student], [101 x %struct.student]* %6, i64 0, i64 %37
  %39 = getelementptr inbounds %struct.student, %struct.student* %38, i32 0, i32 4
  %40 = load i32, i32* %11, align 4
  %41 = sext i32 %40 to i64
  %42 = getelementptr inbounds [101 x %struct.student], [101 x %struct.student]* %6, i64 0, i64 %41
  %43 = getelementptr inbounds %struct.student, %struct.student* %42, i32 0, i32 5
  %44 = call i32 (i8*, ...) @__isoc99_scanf(i8* getelementptr inbounds ([18 x i8], [18 x i8]* @.str.1, i64 0, i64 0), i8* %23, i32* %27, i32* %31, i8* %35, i8* %39, i32* %43)
  %45 = load i32, i32* %11, align 4
  %46 = sext i32 %45 to i64
  %47 = getelementptr inbounds [101 x %struct.student], [101 x %struct.student]* %6, i64 0, i64 %46
  %48 = call i32 @jiangxuejin(%struct.student* byval(%struct.student) align 8 %47)
  %49 = load i32, i32* %11, align 4
  %50 = sext i32 %49 to i64
  %51 = getelementptr inbounds [101 x %struct.student], [101 x %struct.student]* %6, i64 0, i64 %50
  %52 = getelementptr inbounds %struct.student, %struct.student* %51, i32 0, i32 6
  store i32 %48, i32* %52, align 4
  br label %53

53:                                               ; preds = %18
  %54 = load i32, i32* %11, align 4
  %55 = add nsw i32 %54, 1
  store i32 %55, i32* %11, align 4
  br label %14

56:                                               ; preds = %14
  store i32 0, i32* %9, align 4
  store i32 0, i32* %8, align 4
  store i32 0, i32* %10, align 4
  store i32 0, i32* %12, align 4
  br label %57

57:                                               ; preds = %84, %56
  %58 = load i32, i32* %12, align 4
  %59 = load i32, i32* %7, align 4
  %60 = icmp slt i32 %58, %59
  br i1 %60, label %61, label %87

61:                                               ; preds = %57
  %62 = load i32, i32* %12, align 4
  %63 = sext i32 %62 to i64
  %64 = getelementptr inbounds [101 x %struct.student], [101 x %struct.student]* %6, i64 0, i64 %63
  %65 = getelementptr inbounds %struct.student, %struct.student* %64, i32 0, i32 6
  %66 = load i32, i32* %65, align 4
  %67 = load i32, i32* %9, align 4
  %68 = icmp sgt i32 %66, %67
  br i1 %68, label %69, label %76

69:                                               ; preds = %61
  %70 = load i32, i32* %12, align 4
  %71 = sext i32 %70 to i64
  %72 = getelementptr inbounds [101 x %struct.student], [101 x %struct.student]* %6, i64 0, i64 %71
  %73 = getelementptr inbounds %struct.student, %struct.student* %72, i32 0, i32 6
  %74 = load i32, i32* %73, align 4
  store i32 %74, i32* %9, align 4
  %75 = load i32, i32* %12, align 4
  store i32 %75, i32* %10, align 4
  br label %76

76:                                               ; preds = %69, %61
  %77 = load i32, i32* %12, align 4
  %78 = sext i32 %77 to i64
  %79 = getelementptr inbounds [101 x %struct.student], [101 x %struct.student]* %6, i64 0, i64 %78
  %80 = getelementptr inbounds %struct.student, %struct.student* %79, i32 0, i32 6
  %81 = load i32, i32* %80, align 4
  %82 = load i32, i32* %8, align 4
  %83 = add nsw i32 %82, %81
  store i32 %83, i32* %8, align 4
  br label %84

84:                                               ; preds = %76
  %85 = load i32, i32* %12, align 4
  %86 = add nsw i32 %85, 1
  store i32 %86, i32* %12, align 4
  br label %57

87:                                               ; preds = %57
  %88 = load i32, i32* %10, align 4
  %89 = sext i32 %88 to i64
  %90 = getelementptr inbounds [101 x %struct.student], [101 x %struct.student]* %6, i64 0, i64 %89
  %91 = getelementptr inbounds %struct.student, %struct.student* %90, i32 0, i32 0
  %92 = getelementptr inbounds [25 x i8], [25 x i8]* %91, i64 0, i64 0
  %93 = call i32 (i8*, ...) @printf(i8* getelementptr inbounds ([4 x i8], [4 x i8]* @.str.2, i64 0, i64 0), i8* %92)
  %94 = load i32, i32* %9, align 4
  %95 = call i32 (i8*, ...) @printf(i8* getelementptr inbounds ([4 x i8], [4 x i8]* @.str.3, i64 0, i64 0), i32 %94)
  %96 = load i32, i32* %8, align 4
  %97 = call i32 (i8*, ...) @printf(i8* getelementptr inbounds ([4 x i8], [4 x i8]* @.str.3, i64 0, i64 0), i32 %96)
  ret i32 0
}

declare dso_local i32 @__isoc99_scanf(i8*, ...) #1

; Function Attrs: noinline nounwind uwtable
define dso_local i32 @jiangxuejin(%struct.student* byval(%struct.student) align 8 %0) #0 {
  %2 = alloca i32, align 4
  store i32 0, i32* %2, align 4
  %3 = getelementptr inbounds %struct.student, %struct.student* %0, i32 0, i32 1
  %4 = load i32, i32* %3, align 4
  %5 = icmp sgt i32 %4, 80
  br i1 %5, label %6, label %13

6:                                                ; preds = %1
  %7 = getelementptr inbounds %struct.student, %struct.student* %0, i32 0, i32 5
  %8 = load i32, i32* %7, align 8
  %9 = icmp sge i32 %8, 1
  br i1 %9, label %10, label %13

10:                                               ; preds = %6
  %11 = load i32, i32* %2, align 4
  %12 = add nsw i32 %11, 8000
  store i32 %12, i32* %2, align 4
  br label %13

13:                                               ; preds = %10, %6, %1
  %14 = getelementptr inbounds %struct.student, %struct.student* %0, i32 0, i32 1
  %15 = load i32, i32* %14, align 4
  %16 = icmp sgt i32 %15, 85
  br i1 %16, label %17, label %24

17:                                               ; preds = %13
  %18 = getelementptr inbounds %struct.student, %struct.student* %0, i32 0, i32 2
  %19 = load i32, i32* %18, align 8
  %20 = icmp sgt i32 %19, 80
  br i1 %20, label %21, label %24

21:                                               ; preds = %17
  %22 = load i32, i32* %2, align 4
  %23 = add nsw i32 %22, 4000
  store i32 %23, i32* %2, align 4
  br label %24

24:                                               ; preds = %21, %17, %13
  %25 = getelementptr inbounds %struct.student, %struct.student* %0, i32 0, i32 1
  %26 = load i32, i32* %25, align 4
  %27 = icmp sgt i32 %26, 90
  br i1 %27, label %28, label %31

28:                                               ; preds = %24
  %29 = load i32, i32* %2, align 4
  %30 = add nsw i32 %29, 2000
  store i32 %30, i32* %2, align 4
  br label %31

31:                                               ; preds = %28, %24
  %32 = getelementptr inbounds %struct.student, %struct.student* %0, i32 0, i32 4
  %33 = load i8, i8* %32, align 1
  %34 = sext i8 %33 to i32
  %35 = icmp eq i32 %34, 89
  br i1 %35, label %36, label %43

36:                                               ; preds = %31
  %37 = getelementptr inbounds %struct.student, %struct.student* %0, i32 0, i32 1
  %38 = load i32, i32* %37, align 4
  %39 = icmp sgt i32 %38, 85
  br i1 %39, label %40, label %43

40:                                               ; preds = %36
  %41 = load i32, i32* %2, align 4
  %42 = add nsw i32 %41, 1000
  store i32 %42, i32* %2, align 4
  br label %43

43:                                               ; preds = %40, %36, %31
  %44 = getelementptr inbounds %struct.student, %struct.student* %0, i32 0, i32 2
  %45 = load i32, i32* %44, align 8
  %46 = icmp sgt i32 %45, 80
  br i1 %46, label %47, label %55

47:                                               ; preds = %43
  %48 = getelementptr inbounds %struct.student, %struct.student* %0, i32 0, i32 3
  %49 = load i8, i8* %48, align 4
  %50 = sext i8 %49 to i32
  %51 = icmp eq i32 %50, 89
  br i1 %51, label %52, label %55

52:                                               ; preds = %47
  %53 = load i32, i32* %2, align 4
  %54 = add nsw i32 %53, 850
  store i32 %54, i32* %2, align 4
  br label %55

55:                                               ; preds = %52, %47, %43
  %56 = load i32, i32* %2, align 4
  ret i32 %56
}

declare dso_local i32 @printf(i8*, ...) #1


!llvm.module.flags = !{!0}
!llvm.ident = !{!1}

!0 = !{i32 1, !"wchar_size", i32 4}
!1 = !{!"clang version 10.0.0-4ubuntu1 "}
